target datalayout = "e-m:e-p270:32:32-p271:32:32-p272:64:64-i64:64-i128:128-f80:128-n8:16:32:64-S128"
target triple = "x86_64-pc-linux-gnu"

%class.EnabledProtocolItem = type { %class.ModelHelperTreeItem, %class.QString, %class.QString, i8, i8, i32 }
%class.ModelHelperTreeItem = type { ptr, ptr, %class.QList }
%class.QList = type { %struct.QArrayDataPointer.0 }
%struct.QArrayDataPointer.0 = type { ptr, ptr, i64 }
%class.QString = type { %struct.QArrayDataPointer }
%struct.QArrayDataPointer = type { ptr, ptr, i64 }
%class.ProtocolTreeItem = type { %class.EnabledProtocolItem, ptr }

@mainApp = external global ptr, align 8

; Function Attrs: mustprogress null_pointer_is_valid sspstrong uwtable
define void @_ZN21EnabledProtocolsModel11saveChangesEb(i1 noundef zeroext %0) #0 align 2 {
  %2 = alloca i8, align 1
  %3 = zext i1 %0 to i8
  store i8 %3, ptr %2, align 1
  %4 = load i8, ptr %2, align 1, !range !6, !noundef !7
  %5 = trunc i8 %4 to i1
  br i1 %5, label %6, label %7

6:                                                ; preds = %1
  call void @save_enabled_and_disabled_lists()
  br label %7

7:                                                ; preds = %6, %1
  %8 = load ptr, ptr @mainApp, align 8
  call void @_ZN15MainApplication13emitAppSignalENS_9AppSignalE(ptr noundef align 8 dereferenceable_or_null(216) %8, i32 noundef 8)
  ret void
}

; Function Attrs: mustprogress null_pointer_is_valid sspstrong uwtable
define noundef zeroext i1 @_ZN19EnabledProtocolItem10applyValueEv(ptr noundef align 8 dereferenceable_or_null(96) %0) #0 align 2 {
  %2 = alloca i1, align 1
  %3 = alloca ptr, align 8
  store ptr %0, ptr %3, align 8
  %4 = load ptr, ptr %3, align 8
  %5 = getelementptr inbounds nuw %class.EnabledProtocolItem, ptr %4, i32 0, i32 4
  %6 = load i8, ptr %5, align 1, !range !6, !noundef !7
  %7 = trunc i8 %6 to i1
  %8 = zext i1 %7 to i32
  %9 = getelementptr inbounds nuw %class.EnabledProtocolItem, ptr %4, i32 0, i32 3
  %10 = load i8, ptr %9, align 8, !range !6, !noundef !7
  %11 = trunc i8 %10 to i1
  %12 = zext i1 %11 to i32
  %13 = icmp ne i32 %8, %12
  br i1 %13, label %14, label %21

14:                                               ; preds = %1
  %15 = getelementptr inbounds nuw %class.EnabledProtocolItem, ptr %4, i32 0, i32 3
  %16 = load i8, ptr %15, align 8, !range !6, !noundef !7
  %17 = trunc i8 %16 to i1
  %18 = load ptr, ptr %4, align 8
  %19 = getelementptr inbounds ptr, ptr %18, i64 2
  %20 = load ptr, ptr %19, align 8
  call void %20(ptr noundef align 8 dereferenceable_or_null(96) %4, i1 noundef zeroext %17)
  store i1 true, ptr %2, align 1
  br label %22

21:                                               ; preds = %1
  store i1 false, ptr %2, align 1
  br label %22

22:                                               ; preds = %21, %14
  %23 = load i1, ptr %2, align 1
  ret i1 %23
}

; Function Attrs: mustprogress nounwind null_pointer_is_valid sspstrong uwtable
define linkonce_odr void @_ZN19EnabledProtocolItem10setEnabledEb(ptr noundef align 8 dereferenceable_or_null(96) %0, i1 noundef zeroext %1) #1 comdat align 2 {
  %3 = alloca ptr, align 8
  %4 = alloca i8, align 1
  store ptr %0, ptr %3, align 8
  %5 = zext i1 %1 to i8
  store i8 %5, ptr %4, align 1
  %6 = load ptr, ptr %3, align 8
  %7 = load i8, ptr %4, align 1, !range !6, !noundef !7
  %8 = trunc i8 %7 to i1
  %9 = getelementptr inbounds nuw %class.EnabledProtocolItem, ptr %6, i32 0, i32 3
  %10 = zext i1 %8 to i8
  store i8 %10, ptr %9, align 8
  ret void
}

; Function Attrs: mustprogress null_pointer_is_valid sspstrong uwtable
define void @_ZN21EnabledProtocolsModel15disableProtocolEP9_protocol(ptr noundef %0) #0 align 2 personality ptr @__gxx_personality_v0 {
  %2 = alloca ptr, align 8
  %3 = alloca %class.ProtocolTreeItem, align 8
  %4 = alloca ptr, align 8
  %5 = alloca i32, align 4
  store ptr %0, ptr %2, align 8
  call void @llvm.lifetime.start.p0(i64 104, ptr %3) #20
  %6 = load ptr, ptr %2, align 8
  call void @_ZN16ProtocolTreeItemC2EP9_protocolP19EnabledProtocolItem(ptr noundef align 8 dereferenceable_or_null(104) %3, ptr noundef %6, ptr noundef null)
  invoke void @_ZN19EnabledProtocolItem10setEnabledEb(ptr noundef align 8 dereferenceable_or_null(96) %3, i1 noundef zeroext false)
          to label %7 unwind label %12

7:                                                ; preds = %1
  %8 = invoke noundef zeroext i1 @_ZN19EnabledProtocolItem10applyValueEv(ptr noundef align 8 dereferenceable_or_null(96) %3)
          to label %9 unwind label %12

9:                                                ; preds = %7
  br i1 %8, label %10, label %16

10:                                               ; preds = %9
  invoke void @_ZN21EnabledProtocolsModel11saveChangesEb(i1 noundef zeroext true)
          to label %11 unwind label %12

11:                                               ; preds = %10
  br label %16

12:                                               ; preds = %10, %7, %1
  %13 = landingpad { ptr, i32 }
          cleanup
  %14 = extractvalue { ptr, i32 } %13, 0
  store ptr %14, ptr %4, align 8
  %15 = extractvalue { ptr, i32 } %13, 1
  store i32 %15, ptr %5, align 4
  call void @_ZN19EnabledProtocolItemD2Ev(ptr noundef align 8 dereferenceable_or_null(104) %3) #20
  call void @llvm.lifetime.end.p0(i64 104, ptr %3) #20
  br label %17

16:                                               ; preds = %11, %9
  call void @_ZN19EnabledProtocolItemD2Ev(ptr noundef align 8 dereferenceable_or_null(104) %3) #20
  call void @llvm.lifetime.end.p0(i64 104, ptr %3) #20
  ret void

17:                                               ; preds = %12
  %18 = load ptr, ptr %4, align 8
  %19 = load i32, ptr %5, align 4
  %20 = insertvalue { ptr, i32 } poison, ptr %18, 0
  %21 = insertvalue { ptr, i32 } %20, i32 %19, 1
  resume { ptr, i32 } %21
}