; Function Attrs: mustprogress null_pointer_is_valid sspstrong uwtable
define void @_ZN21EnabledProtocolsModel15disableProtocolEP9_protocol(ptr noundef %0) local_unnamed_addr #4 align 2 personality ptr @__gxx_personality_v0 {
  %2 = alloca %class.ProtocolTreeItem, align 8
  call void @llvm.lifetime.start.p0(i64 104, ptr nonnull %2) #28
  call void @_ZN16ProtocolTreeItemC2EP9_protocolP19EnabledProtocolItem(ptr noundef nonnull align 8 dereferenceable_or_null(104) %2, ptr noundef %0, ptr noundef null)
  %3 = getelementptr inbounds nuw i8, ptr %2, i64 88
  store i8 0, ptr %3, align 8
  %4 = getelementptr inbounds nuw i8, ptr %2, i64 89
  %5 = load i8, ptr %4, align 1, !range !6, !noundef !7
  %.not.i.not = icmp eq i8 %5, 0
  br i1 %.not.i.not, label %_ZN19EnabledProtocolItem10applyValueEv.exit, label %6

6:                                                ; preds = %1
  %7 = load ptr, ptr %2, align 8
  %8 = getelementptr inbounds nuw i8, ptr %7, i64 16
  %9 = load ptr, ptr %8, align 8
  invoke void %9(ptr noundef nonnull align 8 dereferenceable_or_null(96) %2, i1 noundef zeroext false)
          to label %10 unwind label %12

10:                                               ; preds = %6
  invoke void @save_enabled_and_disabled_lists()
          to label %.noexc2 unwind label %12

.noexc2:                                          ; preds = %10
  %11 = load ptr, ptr @mainApp, align 8
  invoke void @_ZN15MainApplication13emitAppSignalENS_9AppSignalE(ptr noundef align 8 dereferenceable_or_null(216) %11, i32 noundef 8)
          to label %_ZN19EnabledProtocolItem10applyValueEv.exit unwind label %12

12:                                               ; preds = %.noexc2, %10, %6
  %13 = landingpad { ptr, i32 }
          cleanup
  call void @_ZN19EnabledProtocolItemD2Ev(ptr noundef nonnull align 8 dereferenceable_or_null(104) %2) #28
  call void @llvm.lifetime.end.p0(i64 104, ptr nonnull %2) #28
  resume { ptr, i32 } %13

_ZN19EnabledProtocolItem10applyValueEv.exit:      ; preds = %.noexc2, %1
  store ptr getelementptr inbounds nuw inrange(-16, 24) (i8, ptr @_ZTV19EnabledProtocolItem, i64 16), ptr %2, align 8
  %14 = getelementptr inbounds nuw i8, ptr %2, i64 64
  %15 = load ptr, ptr %14, align 8
  %.not.i.i.i.i = icmp eq ptr %15, null
  br i1 %.not.i.i.i.i, label %_ZN7QStringD2Ev.exit.i, label %_ZN17QArrayDataPointerIDsE5derefEv.exit.i.i.i

_ZN17QArrayDataPointerIDsE5derefEv.exit.i.i.i:    ; preds = %_ZN19EnabledProtocolItem10applyValueEv.exit
  %16 = atomicrmw sub ptr %15, i32 1 seq_cst, align 4
  %.not.i.i.i = icmp eq i32 %16, 1
  br i1 %.not.i.i.i, label %17, label %_ZN7QStringD2Ev.exit.i

17:                                               ; preds = %_ZN17QArrayDataPointerIDsE5derefEv.exit.i.i.i
  %18 = load ptr, ptr %14, align 8
  call void @_ZN10QArrayData10deallocateEPS_xx(ptr noundef %18, i64 noundef 2, i64 noundef 8) #28
  br label %_ZN7QStringD2Ev.exit.i

_ZN7QStringD2Ev.exit.i:                           ; preds = %17, %_ZN17QArrayDataPointerIDsE5derefEv.exit.i.i.i, %_ZN19EnabledProtocolItem10applyValueEv.exit
  %19 = getelementptr inbounds nuw i8, ptr %2, i64 40
  %20 = load ptr, ptr %19, align 8
  %.not.i.i.i1.i = icmp eq ptr %20, null
  br i1 %.not.i.i.i1.i, label %_ZN19EnabledProtocolItemD2Ev.exit, label %_ZN17QArrayDataPointerIDsE5derefEv.exit.i.i2.i

_ZN17QArrayDataPointerIDsE5derefEv.exit.i.i2.i:   ; preds = %_ZN7QStringD2Ev.exit.i
  %21 = atomicrmw sub ptr %20, i32 1 seq_cst, align 4
  %.not.i.i3.i = icmp eq i32 %21, 1
  br i1 %.not.i.i3.i, label %22, label %_ZN19EnabledProtocolItemD2Ev.exit

22:                                               ; preds = %_ZN17QArrayDataPointerIDsE5derefEv.exit.i.i2.i
  %23 = load ptr, ptr %19, align 8
  call void @_ZN10QArrayData10deallocateEPS_xx(ptr noundef %23, i64 noundef 2, i64 noundef 8) #28
  br label %_ZN19EnabledProtocolItemD2Ev.exit

_ZN19EnabledProtocolItemD2Ev.exit:                ; preds = %_ZN7QStringD2Ev.exit.i, %_ZN17QArrayDataPointerIDsE5derefEv.exit.i.i2.i, %22
  call void @_ZN19ModelHelperTreeItemI19EnabledProtocolItemED2Ev(ptr noundef nonnull align 8 dereferenceable_or_null(104) %2) #28
  call void @llvm.lifetime.end.p0(i64 104, ptr nonnull %2) #28
  ret void
}